target datalayout = "e-m:e-p270:32:32-p271:32:32-p272:64:64-i64:64-i128:128-f80:128-n8:16:32:64-S128"
target triple = "x86_64-pc-linux-gnu"

; Function Attrs: nounwind uwtable
define internal void @sbr_hf_gen_c(ptr noundef %0, ptr noundef %1, ptr noundef %2, ptr noundef %3, i32 noundef %4, i32 noundef %5, i32 noundef %6) #1 {
  %8 = alloca ptr, align 8
  %9 = alloca ptr, align 8
  %10 = alloca ptr, align 8
  %11 = alloca ptr, align 8
  %12 = alloca i32, align 4
  %13 = alloca i32, align 4
  %14 = alloca i32, align 4
  %15 = alloca [4 x i32], align 16
  %16 = alloca i32, align 4
  %17 = alloca i64, align 8
  store ptr %0, ptr %8, align 8, !tbaa !21
  store ptr %1, ptr %9, align 8, !tbaa !21
  store ptr %2, ptr %10, align 8, !tbaa !21
  store ptr %3, ptr %11, align 8, !tbaa !21
  store i32 %4, ptr %12, align 4, !tbaa !23
  store i32 %5, ptr %13, align 4, !tbaa !23
  store i32 %6, ptr %14, align 4, !tbaa !23
  call void @llvm.lifetime.start.p0(i64 16, ptr %15) #8
  call void @llvm.lifetime.start.p0(i64 4, ptr %16) #8
  call void @llvm.lifetime.start.p0(i64 8, ptr %17) #8
  %18 = load ptr, ptr %10, align 8, !tbaa !21
  %19 = getelementptr inbounds i32, ptr %18, i64 0
  %20 = load i32, ptr %19, align 4, !tbaa !23
  %21 = sext i32 %20 to i64
  %22 = load i32, ptr %12, align 4, !tbaa !23
  %23 = sext i32 %22 to i64
  %24 = mul nsw i64 %21, %23
  store i64 %24, ptr %17, align 8, !tbaa !27
  %25 = load i64, ptr %17, align 8, !tbaa !27
  %26 = add nsw i64 %25, 1073741824
  %27 = ashr i64 %26, 31
  %28 = trunc i64 %27 to i32
  %29 = getelementptr inbounds [4 x i32], ptr %15, i64 0, i64 2
  store i32 %28, ptr %29, align 8, !tbaa !23
  %30 = load ptr, ptr %10, align 8, !tbaa !21
  %31 = getelementptr inbounds i32, ptr %30, i64 1
  %32 = load i32, ptr %31, align 4, !tbaa !23
  %33 = sext i32 %32 to i64
  %34 = load i32, ptr %12, align 4, !tbaa !23
  %35 = sext i32 %34 to i64
  %36 = mul nsw i64 %33, %35
  store i64 %36, ptr %17, align 8, !tbaa !27
  %37 = load i64, ptr %17, align 8, !tbaa !27
  %38 = add nsw i64 %37, 1073741824
  %39 = ashr i64 %38, 31
  %40 = trunc i64 %39 to i32
  %41 = getelementptr inbounds [4 x i32], ptr %15, i64 0, i64 3
  store i32 %40, ptr %41, align 4, !tbaa !23
  %42 = load i32, ptr %12, align 4, !tbaa !23
  %43 = sext i32 %42 to i64
  %44 = load i32, ptr %12, align 4, !tbaa !23
  %45 = sext i32 %44 to i64
  %46 = mul nsw i64 %43, %45
  store i64 %46, ptr %17, align 8, !tbaa !27
  %47 = load i64, ptr %17, align 8, !tbaa !27
  %48 = add nsw i64 %47, 1073741824
  %49 = ashr i64 %48, 31
  %50 = trunc i64 %49 to i32
  store i32 %50, ptr %12, align 4, !tbaa !23
  %51 = load ptr, ptr %11, align 8, !tbaa !21
  %52 = getelementptr inbounds i32, ptr %51, i64 0
  %53 = load i32, ptr %52, align 4, !tbaa !23
  %54 = sext i32 %53 to i64
  %55 = load i32, ptr %12, align 4, !tbaa !23
  %56 = sext i32 %55 to i64
  %57 = mul nsw i64 %54, %56
  store i64 %57, ptr %17, align 8, !tbaa !27
  %58 = load i64, ptr %17, align 8, !tbaa !27
  %59 = add nsw i64 %58, 1073741824
  %60 = ashr i64 %59, 31
  %61 = trunc i64 %60 to i32
  %62 = getelementptr inbounds [4 x i32], ptr %15, i64 0, i64 0
  store i32 %61, ptr %62, align 16, !tbaa !23
  %63 = load ptr, ptr %11, align 8, !tbaa !21
  %64 = getelementptr inbounds i32, ptr %63, i64 1
  %65 = load i32, ptr %64, align 4, !tbaa !23
  %66 = sext i32 %65 to i64
  %67 = load i32, ptr %12, align 4, !tbaa !23
  %68 = sext i32 %67 to i64
  %69 = mul nsw i64 %66, %68
  store i64 %69, ptr %17, align 8, !tbaa !27
  %70 = load i64, ptr %17, align 8, !tbaa !27
  %71 = add nsw i64 %70, 1073741824
  %72 = ashr i64 %71, 31
  %73 = trunc i64 %72 to i32
  %74 = getelementptr inbounds [4 x i32], ptr %15, i64 0, i64 1
  store i32 %73, ptr %74, align 4, !tbaa !23
  %75 = load i32, ptr %13, align 4, !tbaa !23
  store i32 %75, ptr %16, align 4, !tbaa !23
  br label %76

76:                                               ; preds = %227, %7
  %77 = load i32, ptr %16, align 4, !tbaa !23
  %78 = load i32, ptr %14, align 4, !tbaa !23
  %79 = icmp slt i32 %77, %78
  br i1 %79, label %80, label %230

80:                                               ; preds = %76
  %81 = load ptr, ptr %9, align 8, !tbaa !21
  %82 = load i32, ptr %16, align 4, !tbaa !23
  %83 = sext i32 %82 to i64
  %84 = getelementptr inbounds [2 x i32], ptr %81, i64 %83
  %85 = getelementptr inbounds [2 x i32], ptr %84, i64 0, i64 0
  %86 = load i32, ptr %85, align 4, !tbaa !23
  %87 = sext i32 %86 to i64
  %88 = mul nsw i64 %87, 536870912
  store i64 %88, ptr %17, align 8, !tbaa !27
  %89 = load ptr, ptr %9, align 8, !tbaa !21
  %90 = load i32, ptr %16, align 4, !tbaa !23
  %91 = sub nsw i32 %90, 2
  %92 = sext i32 %91 to i64
  %93 = getelementptr inbounds [2 x i32], ptr %89, i64 %92
  %94 = getelementptr inbounds [2 x i32], ptr %93, i64 0, i64 0
  %95 = load i32, ptr %94, align 4, !tbaa !23
  %96 = sext i32 %95 to i64
  %97 = getelementptr inbounds [4 x i32], ptr %15, i64 0, i64 0
  %98 = load i32, ptr %97, align 16, !tbaa !23
  %99 = sext i32 %98 to i64
  %100 = mul nsw i64 %96, %99
  %101 = load i64, ptr %17, align 8, !tbaa !27
  %102 = add nsw i64 %101, %100
  store i64 %102, ptr %17, align 8, !tbaa !27
  %103 = load ptr, ptr %9, align 8, !tbaa !21
  %104 = load i32, ptr %16, align 4, !tbaa !23
  %105 = sub nsw i32 %104, 2
  %106 = sext i32 %105 to i64
  %107 = getelementptr inbounds [2 x i32], ptr %103, i64 %106
  %108 = getelementptr inbounds [2 x i32], ptr %107, i64 0, i64 1
  %109 = load i32, ptr %108, align 4, !tbaa !23
  %110 = sext i32 %109 to i64
  %111 = getelementptr inbounds [4 x i32], ptr %15, i64 0, i64 1
  %112 = load i32, ptr %111, align 4, !tbaa !23
  %113 = sext i32 %112 to i64
  %114 = mul nsw i64 %110, %113
  %115 = load i64, ptr %17, align 8, !tbaa !27
  %116 = sub nsw i64 %115, %114
  store i64 %116, ptr %17, align 8, !tbaa !27
  %117 = load ptr, ptr %9, align 8, !tbaa !21
  %118 = load i32, ptr %16, align 4, !tbaa !23
  %119 = sub nsw i32 %118, 1
  %120 = sext i32 %119 to i64
  %121 = getelementptr inbounds [2 x i32], ptr %117, i64 %120
  %122 = getelementptr inbounds [2 x i32], ptr %121, i64 0, i64 0
  %123 = load i32, ptr %122, align 4, !tbaa !23
  %124 = sext i32 %123 to i64
  %125 = getelementptr inbounds [4 x i32], ptr %15, i64 0, i64 2
  %126 = load i32, ptr %125, align 8, !tbaa !23
  %127 = sext i32 %126 to i64
  %128 = mul nsw i64 %124, %127
  %129 = load i64, ptr %17, align 8, !tbaa !27
  %130 = add nsw i64 %129, %128
  store i64 %130, ptr %17, align 8, !tbaa !27
  %131 = load ptr, ptr %9, align 8, !tbaa !21
  %132 = load i32, ptr %16, align 4, !tbaa !23
  %133 = sub nsw i32 %132, 1
  %134 = sext i32 %133 to i64
  %135 = getelementptr inbounds [2 x i32], ptr %131, i64 %134
  %136 = getelementptr inbounds [2 x i32], ptr %135, i64 0, i64 1
  %137 = load i32, ptr %136, align 4, !tbaa !23
  %138 = sext i32 %137 to i64
  %139 = getelementptr inbounds [4 x i32], ptr %15, i64 0, i64 3
  %140 = load i32, ptr %139, align 4, !tbaa !23
  %141 = sext i32 %140 to i64
  %142 = mul nsw i64 %138, %141
  %143 = load i64, ptr %17, align 8, !tbaa !27
  %144 = sub nsw i64 %143, %142
  store i64 %144, ptr %17, align 8, !tbaa !27
  %145 = load i64, ptr %17, align 8, !tbaa !27
  %146 = add nsw i64 %145, 268435456
  %147 = ashr i64 %146, 29
  %148 = trunc i64 %147 to i32
  %149 = load ptr, ptr %8, align 8, !tbaa !21
  %150 = load i32, ptr %16, align 4, !tbaa !23
  %151 = sext i32 %150 to i64
  %152 = getelementptr inbounds [2 x i32], ptr %149, i64 %151
  %153 = getelementptr inbounds [2 x i32], ptr %152, i64 0, i64 0
  store i32 %148, ptr %153, align 4, !tbaa !23
  %154 = load ptr, ptr %9, align 8, !tbaa !21
  %155 = load i32, ptr %16, align 4, !tbaa !23
  %156 = sext i32 %155 to i64
  %157 = getelementptr inbounds [2 x i32], ptr %154, i64 %156
  %158 = getelementptr inbounds [2 x i32], ptr %157, i64 0, i64 1
  %159 = load i32, ptr %158, align 4, !tbaa !23
  %160 = sext i32 %159 to i64
  %161 = mul nsw i64 %160, 536870912
  store i64 %161, ptr %17, align 8, !tbaa !27
  %162 = load ptr, ptr %9, align 8, !tbaa !21
  %163 = load i32, ptr %16, align 4, !tbaa !23
  %164 = sub nsw i32 %163, 2
  %165 = sext i32 %164 to i64
  %166 = getelementptr inbounds [2 x i32], ptr %162, i64 %165
  %167 = getelementptr inbounds [2 x i32], ptr %166, i64 0, i64 1
  %168 = load i32, ptr %167, align 4, !tbaa !23
  %169 = sext i32 %168 to i64
  %170 = getelementptr inbounds [4 x i32], ptr %15, i64 0, i64 0
  %171 = load i32, ptr %170, align 16, !tbaa !23
  %172 = sext i32 %171 to i64
  %173 = mul nsw i64 %169, %172
  %174 = load i64, ptr %17, align 8, !tbaa !27
  %175 = add nsw i64 %174, %173
  store i64 %175, ptr %17, align 8, !tbaa !27
  %176 = load ptr, ptr %9, align 8, !tbaa !21
  %177 = load i32, ptr %16, align 4, !tbaa !23
  %178 = sub nsw i32 %177, 2
  %179 = sext i32 %178 to i64
  %180 = getelementptr inbounds [2 x i32], ptr %176, i64 %179
  %181 = getelementptr inbounds [2 x i32], ptr %180, i64 0, i64 0
  %182 = load i32, ptr %181, align 4, !tbaa !23
  %183 = sext i32 %182 to i64
  %184 = getelementptr inbounds [4 x i32], ptr %15, i64 0, i64 1
  %185 = load i32, ptr %184, align 4, !tbaa !23
  %186 = sext i32 %185 to i64
  %187 = mul nsw i64 %183, %186
  %188 = load i64, ptr %17, align 8, !tbaa !27
  %189 = add nsw i64 %188, %187
  store i64 %189, ptr %17, align 8, !tbaa !27
  %190 = load ptr, ptr %9, align 8, !tbaa !21
  %191 = load i32, ptr %16, align 4, !tbaa !23
  %192 = sub nsw i32 %191, 1
  %193 = sext i32 %192 to i64
  %194 = getelementptr inbounds [2 x i32], ptr %190, i64 %193
  %195 = getelementptr inbounds [2 x i32], ptr %194, i64 0, i64 1
  %196 = load i32, ptr %195, align 4, !tbaa !23
  %197 = sext i32 %196 to i64
  %198 = getelementptr inbounds [4 x i32], ptr %15, i64 0, i64 2
  %199 = load i32, ptr %198, align 8, !tbaa !23
  %200 = sext i32 %199 to i64
  %201 = mul nsw i64 %197, %200
  %202 = load i64, ptr %17, align 8, !tbaa !27
  %203 = add nsw i64 %202, %201
  store i64 %203, ptr %17, align 8, !tbaa !27
  %204 = load ptr, ptr %9, align 8, !tbaa !21
  %205 = load i32, ptr %16, align 4, !tbaa !23
  %206 = sub nsw i32 %205, 1
  %207 = sext i32 %206 to i64
  %208 = getelementptr inbounds [2 x i32], ptr %204, i64 %207
  %209 = getelementptr inbounds [2 x i32], ptr %208, i64 0, i64 0
  %210 = load i32, ptr %209, align 4, !tbaa !23
  %211 = sext i32 %210 to i64
  %212 = getelementptr inbounds [4 x i32], ptr %15, i64 0, i64 3
  %213 = load i32, ptr %212, align 4, !tbaa !23
  %214 = sext i32 %213 to i64
  %215 = mul nsw i64 %211, %214
  %216 = load i64, ptr %17, align 8, !tbaa !27
  %217 = add nsw i64 %216, %215
  store i64 %217, ptr %17, align 8, !tbaa !27
  %218 = load i64, ptr %17, align 8, !tbaa !27
  %219 = add nsw i64 %218, 268435456
  %220 = ashr i64 %219, 29
  %221 = trunc i64 %220 to i32
  %222 = load ptr, ptr %8, align 8, !tbaa !21
  %223 = load i32, ptr %16, align 4, !tbaa !23
  %224 = sext i32 %223 to i64
  %225 = getelementptr inbounds [2 x i32], ptr %222, i64 %224
  %226 = getelementptr inbounds [2 x i32], ptr %225, i64 0, i64 1
  store i32 %221, ptr %226, align 4, !tbaa !23
  br label %227

227:                                              ; preds = %80
  %228 = load i32, ptr %16, align 4, !tbaa !23
  %229 = add nsw i32 %228, 1
  store i32 %229, ptr %16, align 4, !tbaa !23
  br label %76, !llvm.loop !40

230:                                              ; preds = %76
  call void @llvm.lifetime.end.p0(i64 8, ptr %17) #8
  call void @llvm.lifetime.end.p0(i64 4, ptr %16) #8
  call void @llvm.lifetime.end.p0(i64 16, ptr %15) #8
  ret void
}