; Function Attrs: nofree norecurse nosync nounwind memory(argmem: readwrite) uwtable
define internal void @sbr_hf_gen_c(ptr noundef writeonly captures(none) %0, ptr noundef readonly captures(none) %1, ptr noundef readonly captures(none) %2, ptr noundef readonly captures(none) %3, i32 noundef %4, i32 noundef %5, i32 noundef %6) #1 {
  %8 = icmp slt i32 %5, %6
  br i1 %8, label %.lr.ph, label %._crit_edge

.lr.ph:                                           ; preds = %7
  %9 = sext i32 %4 to i64
  %10 = getelementptr inbounds nuw i8, ptr %2, i64 4
  %11 = load i32, ptr %10, align 4, !tbaa !19
  %12 = sext i32 %11 to i64
  %factor.op.mul62 = mul nsw i64 %9, %12
  %13 = load i32, ptr %2, align 4, !tbaa !19
  %14 = sext i32 %13 to i64
  %factor.op.mul60 = mul nsw i64 %9, %14
  %15 = shl nsw i64 %9, 1
  %16 = mul i64 %15, %9
  %17 = add i64 %16, 2147483648
  %18 = ashr i64 %17, 32
  %19 = getelementptr inbounds nuw i8, ptr %3, i64 4
  %20 = load i32, ptr %19, align 4, !tbaa !19
  %21 = sext i32 %20 to i64
  %factor.op.mul58 = mul nsw i64 %18, %21
  %22 = load i32, ptr %3, align 4, !tbaa !19
  %23 = sext i32 %22 to i64
  %factor.op.mul = mul nsw i64 %18, %23
  %.reass = shl i64 %factor.op.mul, 1
  %24 = add i64 %.reass, 2147483648
  %25 = ashr i64 %24, 32
  %.reass59 = shl i64 %factor.op.mul58, 1
  %26 = add i64 %.reass59, 2147483648
  %27 = ashr i64 %26, 32
  %.reass61 = shl i64 %factor.op.mul60, 1
  %28 = add i64 %.reass61, 2147483648
  %29 = ashr i64 %28, 32
  %.reass63 = shl i64 %factor.op.mul62, 1
  %30 = add i64 %.reass63, 2147483648
  %31 = ashr i64 %30, 32
  %32 = sext i32 %5 to i64
  %wide.trip.count = sext i32 %6 to i64
  br label %33

33:                                               ; preds = %.lr.ph, %33
  %indvars.iv = phi i64 [ %32, %.lr.ph ], [ %indvars.iv.next, %33 ]
  %34 = getelementptr inbounds [2 x i32], ptr %1, i64 %indvars.iv
  %35 = load i32, ptr %34, align 4, !tbaa !19
  %36 = sext i32 %35 to i64
  %37 = shl nsw i64 %36, 29
  %38 = getelementptr i8, ptr %34, i64 -16
  %39 = load i32, ptr %38, align 4, !tbaa !19
  %40 = sext i32 %39 to i64
  %41 = mul nsw i64 %25, %40
  %42 = getelementptr i8, ptr %34, i64 -12
  %43 = load i32, ptr %42, align 4, !tbaa !19
  %44 = sext i32 %43 to i64
  %45 = getelementptr i8, ptr %34, i64 -8
  %46 = load i32, ptr %45, align 4, !tbaa !19
  %47 = sext i32 %46 to i64
  %48 = mul nsw i64 %29, %47
  %49 = getelementptr i8, ptr %34, i64 -4
  %50 = load i32, ptr %49, align 4, !tbaa !19
  %51 = sext i32 %50 to i64
  %52 = mul nsw i64 %27, %44
  %53 = mul nsw i64 %31, %51
  %54 = add i64 %53, %52
  %55 = or disjoint i64 %37, 268435456
  %56 = add i64 %55, %41
  %57 = add i64 %56, %48
  %58 = sub i64 %57, %54
  %59 = lshr i64 %58, 29
  %60 = trunc i64 %59 to i32
  %61 = getelementptr inbounds [2 x i32], ptr %0, i64 %indvars.iv
  store i32 %60, ptr %61, align 4, !tbaa !19
  %62 = getelementptr inbounds nuw i8, ptr %34, i64 4
  %63 = load i32, ptr %62, align 4, !tbaa !19
  %64 = sext i32 %63 to i64
  %65 = shl nsw i64 %64, 29
  %66 = load i32, ptr %42, align 4, !tbaa !19
  %67 = sext i32 %66 to i64
  %68 = mul nsw i64 %25, %67
  %69 = load i32, ptr %38, align 4, !tbaa !19
  %70 = sext i32 %69 to i64
  %71 = mul nsw i64 %27, %70
  %72 = load i32, ptr %49, align 4, !tbaa !19
  %73 = sext i32 %72 to i64
  %74 = mul nsw i64 %29, %73
  %75 = load i32, ptr %45, align 4, !tbaa !19
  %76 = sext i32 %75 to i64
  %77 = mul nsw i64 %31, %76
  %78 = or disjoint i64 %65, 268435456
  %79 = add i64 %78, %68
  %80 = add i64 %79, %71
  %81 = add i64 %80, %74
  %82 = add i64 %81, %77
  %83 = lshr i64 %82, 29
  %84 = trunc i64 %83 to i32
  %85 = getelementptr inbounds nuw i8, ptr %61, i64 4
  store i32 %84, ptr %85, align 4, !tbaa !19
  %indvars.iv.next = add nsw i64 %indvars.iv, 1
  %exitcond.not = icmp eq i64 %indvars.iv.next, %wide.trip.count
  br i1 %exitcond.not, label %._crit_edge, label %33, !llvm.loop !35

._crit_edge:                                      ; preds = %33, %7
  ret void
}